target datalayout = "e-m:e-p270:32:32-p271:32:32-p272:64:64-i64:64-i128:128-f80:128-n8:16:32:64-S128"
target triple = "x86_64-unknown-linux-gnu"

%struct.VirtIOGPUBase = type { %struct.VirtIODevice, ptr, %struct.virtio_gpu_base_conf, %struct.virtio_gpu_config, ptr, i32, i32, %struct.MemoryRegion, [16 x %struct.virtio_gpu_scanout], i32, [16 x %struct.virtio_gpu_requested_state] }
%struct.VirtIODevice = type { %struct.DeviceState, ptr, i8, i8, i16, i64, i64, i64, i64, ptr, i16, i32, i32, ptr, %struct.MemoryListener, i16, i8, i8, i8, i8, i8, i8, i8, i8, i8, ptr, ptr, i8, i8, ptr, ptr, %union.anon.1, %struct.EventNotifier, i8 }
%struct.DeviceState = type { %struct.Object, ptr, ptr, i8, i8, i64, ptr, i32, i8, ptr, %struct.NamedGPIOListHead, %struct.NamedClockListHead, %struct.BusStateHead, i32, i32, i32, %struct.ResettableState, ptr, %struct.MemReentrancyGuard }
%struct.Object = type { ptr, ptr, ptr, i32, ptr }
%struct.NamedGPIOListHead = type { ptr }
%struct.NamedClockListHead = type { ptr }
%struct.BusStateHead = type { ptr }
%struct.ResettableState = type { i32, i8, i8 }
%struct.MemReentrancyGuard = type { i8 }
%struct.MemoryListener = type { ptr, ptr, ptr, ptr, ptr, ptr, ptr, ptr, ptr, ptr, ptr, ptr, ptr, ptr, ptr, ptr, ptr, i32, ptr, ptr, %union.anon, %union.anon.0 }
%union.anon = type { %struct.QTailQLink }
%struct.QTailQLink = type { ptr, ptr }
%union.anon.0 = type { %struct.QTailQLink }
%union.anon.1 = type { %struct.QTailQLink }
%struct.EventNotifier = type { i32, i32, i8 }
%struct.virtio_gpu_base_conf = type { i32, i32, i32, i32, i64 }
%struct.virtio_gpu_config = type { i32, i32, i32, i32 }
%struct.MemoryRegion = type { %struct.Object, i8, i8, i8, i8, i8, i8, i8, i8, i8, i8, ptr, ptr, ptr, ptr, ptr, ptr, i32, i128, i64, ptr, i64, i8, i8, i8, i8, i8, ptr, i64, i32, %union.anon.2, %union.anon.3, %union.anon.4, ptr, i32, ptr, ptr, i8 }
%union.anon.2 = type { %struct.QTailQLink }
%union.anon.3 = type { %struct.QTailQLink }
%union.anon.4 = type { %struct.QTailQLink }
%struct.virtio_gpu_scanout = type { ptr, ptr, i32, i32, i32, i32, i32, i32, %struct.virtio_gpu_update_cursor, ptr }
%struct.virtio_gpu_update_cursor = type { %struct.virtio_gpu_ctrl_hdr, %struct.virtio_gpu_cursor_pos, i32, i32, i32, i32 }
%struct.virtio_gpu_ctrl_hdr = type { i32, i32, i64, i32, i8, [3 x i8] }
%struct.virtio_gpu_cursor_pos = type { i32, i32, i32, i32 }
%struct.virtio_gpu_requested_state = type { i16, i16, i32, i32, i32, i32, i32 }
%struct.QemuUIInfo = type { i16, i16, i32, i32, i32, i32, i32 }

; Function Attrs: nounwind sspstrong uwtable
define internal void @virtio_gpu_notify_event(ptr noundef %g, i32 noundef %event_type) #0 {
entry:
  %g.addr = alloca ptr, align 8
  %event_type.addr = alloca i32, align 4
  store ptr %g, ptr %g.addr, align 8
  store i32 %event_type, ptr %event_type.addr, align 4
  %0 = load i32, ptr %event_type.addr, align 4
  %1 = load ptr, ptr %g.addr, align 8
  %virtio_config = getelementptr inbounds %struct.VirtIOGPUBase, ptr %1, i32 0, i32 3
  %events_read = getelementptr inbounds %struct.virtio_gpu_config, ptr %virtio_config, i32 0, i32 0
  %2 = load i32, ptr %events_read, align 8
  %or = or i32 %2, %0
  store i32 %or, ptr %events_read, align 8
  %3 = load ptr, ptr %g.addr, align 8
  %parent_obj = getelementptr inbounds %struct.VirtIOGPUBase, ptr %3, i32 0, i32 0
  call void @virtio_notify_config(ptr noundef %parent_obj)
  ret void
}

; Function Attrs: nounwind sspstrong uwtable
define internal void @virtio_gpu_ui_info(ptr noundef %opaque, i32 noundef %idx, ptr noundef %info) #0 {
entry:
  %opaque.addr = alloca ptr, align 8
  %idx.addr = alloca i32, align 4
  %info.addr = alloca ptr, align 8
  %g = alloca ptr, align 8
  store ptr %opaque, ptr %opaque.addr, align 8
  store i32 %idx, ptr %idx.addr, align 4
  store ptr %info, ptr %info.addr, align 8
  %0 = load ptr, ptr %opaque.addr, align 8
  store ptr %0, ptr %g, align 8
  %1 = load i32, ptr %idx.addr, align 4
  %2 = load ptr, ptr %g, align 8
  %conf = getelementptr inbounds %struct.VirtIOGPUBase, ptr %2, i32 0, i32 2
  %max_outputs = getelementptr inbounds %struct.virtio_gpu_base_conf, ptr %conf, i32 0, i32 0
  %3 = load i32, ptr %max_outputs, align 16
  %cmp = icmp uge i32 %1, %3
  br i1 %cmp, label %if.then, label %if.end

if.then:                                          ; preds = %entry
  br label %return

if.end:                                           ; preds = %entry
  %4 = load ptr, ptr %info.addr, align 8
  %xoff = getelementptr inbounds %struct.QemuUIInfo, ptr %4, i32 0, i32 2
  %5 = load i32, ptr %xoff, align 4
  %6 = load ptr, ptr %g, align 8
  %req_state = getelementptr inbounds %struct.VirtIOGPUBase, ptr %6, i32 0, i32 10
  %7 = load i32, ptr %idx.addr, align 4
  %idxprom = zext i32 %7 to i64
  %arrayidx = getelementptr [16 x %struct.virtio_gpu_requested_state], ptr %req_state, i64 0, i64 %idxprom
  %x = getelementptr inbounds %struct.virtio_gpu_requested_state, ptr %arrayidx, i32 0, i32 5
  store i32 %5, ptr %x, align 4
  %8 = load ptr, ptr %info.addr, align 8
  %yoff = getelementptr inbounds %struct.QemuUIInfo, ptr %8, i32 0, i32 3
  %9 = load i32, ptr %yoff, align 4
  %10 = load ptr, ptr %g, align 8
  %req_state1 = getelementptr inbounds %struct.VirtIOGPUBase, ptr %10, i32 0, i32 10
  %11 = load i32, ptr %idx.addr, align 4
  %idxprom2 = zext i32 %11 to i64
  %arrayidx3 = getelementptr [16 x %struct.virtio_gpu_requested_state], ptr %req_state1, i64 0, i64 %idxprom2
  %y = getelementptr inbounds %struct.virtio_gpu_requested_state, ptr %arrayidx3, i32 0, i32 6
  store i32 %9, ptr %y, align 4
  %12 = load ptr, ptr %info.addr, align 8
  %refresh_rate = getelementptr inbounds %struct.QemuUIInfo, ptr %12, i32 0, i32 6
  %13 = load i32, ptr %refresh_rate, align 4
  %14 = load ptr, ptr %g, align 8
  %req_state4 = getelementptr inbounds %struct.VirtIOGPUBase, ptr %14, i32 0, i32 10
  %15 = load i32, ptr %idx.addr, align 4
  %idxprom5 = zext i32 %15 to i64
  %arrayidx6 = getelementptr [16 x %struct.virtio_gpu_requested_state], ptr %req_state4, i64 0, i64 %idxprom5
  %refresh_rate7 = getelementptr inbounds %struct.virtio_gpu_requested_state, ptr %arrayidx6, i32 0, i32 4
  store i32 %13, ptr %refresh_rate7, align 4
  %16 = load ptr, ptr %info.addr, align 8
  %width = getelementptr inbounds %struct.QemuUIInfo, ptr %16, i32 0, i32 4
  %17 = load i32, ptr %width, align 4
  %18 = load ptr, ptr %g, align 8
  %req_state8 = getelementptr inbounds %struct.VirtIOGPUBase, ptr %18, i32 0, i32 10
  %19 = load i32, ptr %idx.addr, align 4
  %idxprom9 = zext i32 %19 to i64
  %arrayidx10 = getelementptr [16 x %struct.virtio_gpu_requested_state], ptr %req_state8, i64 0, i64 %idxprom9
  %width11 = getelementptr inbounds %struct.virtio_gpu_requested_state, ptr %arrayidx10, i32 0, i32 2
  store i32 %17, ptr %width11, align 4
  %20 = load ptr, ptr %info.addr, align 8
  %height = getelementptr inbounds %struct.QemuUIInfo, ptr %20, i32 0, i32 5
  %21 = load i32, ptr %height, align 4
  %22 = load ptr, ptr %g, align 8
  %req_state12 = getelementptr inbounds %struct.VirtIOGPUBase, ptr %22, i32 0, i32 10
  %23 = load i32, ptr %idx.addr, align 4
  %idxprom13 = zext i32 %23 to i64
  %arrayidx14 = getelementptr [16 x %struct.virtio_gpu_requested_state], ptr %req_state12, i64 0, i64 %idxprom13
  %height15 = getelementptr inbounds %struct.virtio_gpu_requested_state, ptr %arrayidx14, i32 0, i32 3
  store i32 %21, ptr %height15, align 4
  %24 = load ptr, ptr %info.addr, align 8
  %width_mm = getelementptr inbounds %struct.QemuUIInfo, ptr %24, i32 0, i32 0
  %25 = load i16, ptr %width_mm, align 4
  %26 = load ptr, ptr %g, align 8
  %req_state16 = getelementptr inbounds %struct.VirtIOGPUBase, ptr %26, i32 0, i32 10
  %27 = load i32, ptr %idx.addr, align 4
  %idxprom17 = zext i32 %27 to i64
  %arrayidx18 = getelementptr [16 x %struct.virtio_gpu_requested_state], ptr %req_state16, i64 0, i64 %idxprom17
  %width_mm19 = getelementptr inbounds %struct.virtio_gpu_requested_state, ptr %arrayidx18, i32 0, i32 0
  store i16 %25, ptr %width_mm19, align 4
  %28 = load ptr, ptr %info.addr, align 8
  %height_mm = getelementptr inbounds %struct.QemuUIInfo, ptr %28, i32 0, i32 1
  %29 = load i16, ptr %height_mm, align 2
  %30 = load ptr, ptr %g, align 8
  %req_state20 = getelementptr inbounds %struct.VirtIOGPUBase, ptr %30, i32 0, i32 10
  %31 = load i32, ptr %idx.addr, align 4
  %idxprom21 = zext i32 %31 to i64
  %arrayidx22 = getelementptr [16 x %struct.virtio_gpu_requested_state], ptr %req_state20, i64 0, i64 %idxprom21
  %height_mm23 = getelementptr inbounds %struct.virtio_gpu_requested_state, ptr %arrayidx22, i32 0, i32 1
  store i16 %29, ptr %height_mm23, align 2
  %32 = load ptr, ptr %info.addr, align 8
  %width24 = getelementptr inbounds %struct.QemuUIInfo, ptr %32, i32 0, i32 4
  %33 = load i32, ptr %width24, align 4
  %tobool = icmp ne i32 %33, 0
  br i1 %tobool, label %land.lhs.true, label %if.else

land.lhs.true:                                    ; preds = %if.end
  %34 = load ptr, ptr %info.addr, align 8
  %height25 = getelementptr inbounds %struct.QemuUIInfo, ptr %34, i32 0, i32 5
  %35 = load i32, ptr %height25, align 4
  %tobool26 = icmp ne i32 %35, 0
  br i1 %tobool26, label %if.then27, label %if.else

if.then27:                                        ; preds = %land.lhs.true
  %36 = load i32, ptr %idx.addr, align 4
  %shl = shl i32 1, %36
  %37 = load ptr, ptr %g, align 8
  %enabled_output_bitmask = getelementptr inbounds %struct.VirtIOGPUBase, ptr %37, i32 0, i32 9
  %38 = load i32, ptr %enabled_output_bitmask, align 16
  %or = or i32 %38, %shl
  store i32 %or, ptr %enabled_output_bitmask, align 16
  br label %if.end30

if.else:                                          ; preds = %land.lhs.true, %if.end
  %39 = load i32, ptr %idx.addr, align 4
  %shl28 = shl i32 1, %39
  %not = xor i32 %shl28, -1
  %40 = load ptr, ptr %g, align 8
  %enabled_output_bitmask29 = getelementptr inbounds %struct.VirtIOGPUBase, ptr %40, i32 0, i32 9
  %41 = load i32, ptr %enabled_output_bitmask29, align 16
  %and = and i32 %41, %not
  store i32 %and, ptr %enabled_output_bitmask29, align 16
  br label %if.end30

if.end30:                                         ; preds = %if.else, %if.then27
  %42 = load ptr, ptr %g, align 8
  call void @virtio_gpu_notify_event(ptr noundef %42, i32 noundef 1)
  br label %return

return:                                           ; preds = %if.end30, %if.then
  ret void
}