; Function Attrs: nounwind sspstrong uwtable
define internal void @virtio_gpu_ui_info(ptr noundef %opaque, i32 noundef %idx, ptr noundef readonly captures(none) %info) #1 {
entry:
  %conf = getelementptr inbounds nuw i8, ptr %opaque, i64 528
  %0 = load i32, ptr %conf, align 16
  %cmp.not = icmp ult i32 %idx, %0
  br i1 %cmp.not, label %if.end, label %return

if.end:                                           ; preds = %entry
  %xoff = getelementptr inbounds nuw i8, ptr %info, i64 4
  %1 = load i32, ptr %xoff, align 4
  %req_state = getelementptr inbounds nuw i8, ptr %opaque, i64 2532
  %idxprom = zext i32 %idx to i64
  %arrayidx = getelementptr [16 x %struct.virtio_gpu_requested_state], ptr %req_state, i64 0, i64 %idxprom
  %x = getelementptr inbounds nuw i8, ptr %arrayidx, i64 16
  store i32 %1, ptr %x, align 4
  %yoff = getelementptr inbounds nuw i8, ptr %info, i64 8
  %2 = load i32, ptr %yoff, align 4
  %y = getelementptr inbounds nuw i8, ptr %arrayidx, i64 20
  store i32 %2, ptr %y, align 4
  %refresh_rate = getelementptr inbounds nuw i8, ptr %info, i64 20
  %3 = load i32, ptr %refresh_rate, align 4
  %refresh_rate7 = getelementptr inbounds nuw i8, ptr %arrayidx, i64 12
  store i32 %3, ptr %refresh_rate7, align 4
  %width = getelementptr inbounds nuw i8, ptr %info, i64 12
  %4 = load i32, ptr %width, align 4
  %width11 = getelementptr inbounds nuw i8, ptr %arrayidx, i64 4
  store i32 %4, ptr %width11, align 4
  %height = getelementptr inbounds nuw i8, ptr %info, i64 16
  %5 = load i32, ptr %height, align 4
  %height15 = getelementptr inbounds nuw i8, ptr %arrayidx, i64 8
  store i32 %5, ptr %height15, align 4
  %6 = load i16, ptr %info, align 4
  store i16 %6, ptr %arrayidx, align 4
  %height_mm = getelementptr inbounds nuw i8, ptr %info, i64 2
  %7 = load i16, ptr %height_mm, align 2
  %height_mm23 = getelementptr inbounds nuw i8, ptr %arrayidx, i64 2
  store i16 %7, ptr %height_mm23, align 2
  %8 = load i32, ptr %width, align 4
  %tobool.not = icmp eq i32 %8, 0
  br i1 %tobool.not, label %if.else, label %land.lhs.true

land.lhs.true:                                    ; preds = %if.end
  %9 = load i32, ptr %height, align 4
  %tobool26.not = icmp eq i32 %9, 0
  br i1 %tobool26.not, label %if.else, label %if.then27

if.then27:                                        ; preds = %land.lhs.true
  %shl = shl nuw i32 1, %idx
  %enabled_output_bitmask = getelementptr inbounds nuw i8, ptr %opaque, i64 2528
  %10 = load i32, ptr %enabled_output_bitmask, align 16
  %or = or i32 %10, %shl
  store i32 %or, ptr %enabled_output_bitmask, align 16
  br label %if.end30

if.else:                                          ; preds = %land.lhs.true, %if.end
  %shl28 = shl nuw i32 1, %idx
  %not = xor i32 %shl28, -1
  %enabled_output_bitmask29 = getelementptr inbounds nuw i8, ptr %opaque, i64 2528
  %11 = load i32, ptr %enabled_output_bitmask29, align 16
  %and = and i32 %11, %not
  store i32 %and, ptr %enabled_output_bitmask29, align 16
  br label %if.end30

if.end30:                                         ; preds = %if.else, %if.then27
  %virtio_config.i = getelementptr inbounds nuw i8, ptr %opaque, i64 552
  %12 = load i32, ptr %virtio_config.i, align 8
  %or.i = or i32 %12, 1
  store i32 %or.i, ptr %virtio_config.i, align 8
  tail call void @virtio_notify_config(ptr noundef nonnull %opaque) #9
  br label %return

return:                                           ; preds = %entry, %if.end30
  ret void
}